target datalayout = "e-m:e-p270:32:32-p271:32:32-p272:64:64-i64:64-i128:128-f80:128-n8:16:32:64-S128"
target triple = "x86_64-pc-linux-gnu"

%"class.Imf_3_4::FastHufDecoder" = type { i32, i32, i8, i8, ptr, [59 x i64], [59 x i64], [4096 x i32], [4096 x i8], i64 }

; Function Attrs: mustprogress nounwind uwtable
define hidden void @_ZN7Imf_3_414FastHufDecoderD2Ev(ptr noundef nonnull align 8 dereferenceable(21456) %0) unnamed_addr #2 align 2 {
  %2 = alloca ptr, align 8
  store ptr %0, ptr %2, align 8, !tbaa !3
  %3 = load ptr, ptr %2, align 8
  %4 = getelementptr inbounds nuw %"class.Imf_3_4::FastHufDecoder", ptr %3, i32 0, i32 4
  %5 = load ptr, ptr %4, align 8, !tbaa !20
  %6 = icmp eq ptr %5, null
  br i1 %6, label %8, label %7

7:                                                ; preds = %1
  call void @_ZdaPv(ptr noundef %5) #17
  br label %8

8:                                                ; preds = %7, %1
  ret void
}