; Function Attrs: mustprogress nounwind uwtable
define hidden void @_ZN7Imf_3_414FastHufDecoderD2Ev(ptr noundef nonnull readonly align 8 captures(none) dereferenceable(21456) %0) unnamed_addr #10 align 2 {
  %2 = getelementptr inbounds nuw i8, ptr %0, i64 16
  %3 = load ptr, ptr %2, align 8, !tbaa !14
  %4 = icmp eq ptr %3, null
  br i1 %4, label %6, label %5

5:                                                ; preds = %1
  tail call void @_ZdaPv(ptr noundef nonnull %3) #21
  br label %6

6:                                                ; preds = %5, %1
  ret void
}